; Function Attrs: mustprogress uwtable
define dso_local void @_ZN3net18ReliableQuicStream16MaybeSendBlockedEv(ptr noundef nonnull align 8 dereferenceable(377) %this) local_unnamed_addr #2 align 2 {
entry:
  %flow_controller_ = getelementptr inbounds i8, ptr %this, i64 272
  tail call void @_ZN3net18QuicFlowController16MaybeSendBlockedEv(ptr noundef nonnull align 8 dereferenceable(96) %flow_controller_)
  %stream_contributes_to_connection_flow_control_ = getelementptr inbounds i8, ptr %this, i64 376
  %0 = load i8, ptr %stream_contributes_to_connection_flow_control_, align 8
  %1 = and i8 %0, 1
  %tobool.not = icmp eq i8 %1, 0
  br i1 %tobool.not, label %if.end7, label %if.end

if.end:                                           ; preds = %entry
  %connection_flow_controller_ = getelementptr inbounds i8, ptr %this, i64 368
  %2 = load ptr, ptr %connection_flow_controller_, align 8
  tail call void @_ZN3net18QuicFlowController16MaybeSendBlockedEv(ptr noundef nonnull align 8 dereferenceable(96) %2)
  %3 = load ptr, ptr %connection_flow_controller_, align 8
  %call = tail call noundef zeroext i1 @_ZNK3net18QuicFlowController9IsBlockedEv(ptr noundef nonnull align 8 dereferenceable(96) %3)
  br i1 %call, label %land.lhs.true, label %if.end7

land.lhs.true:                                    ; preds = %if.end
  %call4 = tail call noundef zeroext i1 @_ZNK3net18QuicFlowController9IsBlockedEv(ptr noundef nonnull align 8 dereferenceable(96) %flow_controller_)
  br i1 %call4, label %if.end7, label %if.then5

if.then5:                                         ; preds = %land.lhs.true
  %session_ = getelementptr inbounds i8, ptr %this, i64 224
  %4 = load ptr, ptr %session_, align 8
  %id_.i = getelementptr inbounds i8, ptr %this, i64 216
  %5 = load i32, ptr %id_.i, align 8
  tail call void @_ZN3net11QuicSession31MarkConnectionLevelWriteBlockedEj(ptr noundef nonnull align 8 dereferenceable(2044) %4, i32 noundef %5)
  br label %if.end7

if.end7:                                          ; preds = %entry, %if.then5, %land.lhs.true, %if.end
  ret void
}